(dp1
S'files'
p2
(dp3
S'projects_forms'
p4
(dp5
S'index'
p6
(dp7
S'html_filename'
p8
S'projects_forms.html'
p9
sS'name'
p10
S'projects/forms'
p11
sS'nums'
p12
ccopy_reg
_reconstructor
p13
(ccoverage.results
Numbers
p14
c__builtin__
object
p15
NtRp16
(dp17
S'n_files'
p18
I1
sS'n_branches'
p19
I0
sS'n_statements'
p20
I23
sS'n_excluded'
p21
I0
sS'n_partial_branches'
p22
I0
sS'n_missing'
p23
I0
sS'n_missing_branches'
p24
I0
sbssS'hash'
p25
S'\x88\x8e\xb2\xa7\xfaUD(\xd5c\xf57o\x90\x99\xb4'
p26
ssS'projects_migrations_0008_auto_20150812_0954'
p27
(dp28
g6
(dp29
g8
S'projects_migrations_0008_auto_20150812_0954.html'
p30
sg10
S'projects/migrations/0008_auto_20150812_0954'
p31
sg12
g13
(g14
g15
NtRp32
(dp33
g18
I1
sg19
I0
sg20
I6
sg21
I0
sg22
I0
sg23
I0
sg24
I0
sbssg25
S'\x8b\xb3\xe9\xa3\xf2\x87,Iy\xd5\xb3\x1a\x90)\xc6\\'
p34
ssS'users_migrations_0001_initial'
p35
(dp36
g6
(dp37
g8
S'users_migrations_0001_initial.html'
p38
sg10
S'users/migrations/0001_initial'
p39
sg12
g13
(g14
g15
NtRp40
(dp41
g18
I1
sg19
I0
sg20
I6
sg21
I0
sg22
I0
sg23
I0
sg24
I0
sbssg25
S'{/\xd3\x88\xe9\x861\xab\xcbiU\x8aj\xb2|\x01'
p42
ssS'projects_migrations_0005_auto_20150812_0817'
p43
(dp44
g6
(dp45
g8
S'projects_migrations_0005_auto_20150812_0817.html'
p46
sg10
S'projects/migrations/0005_auto_20150812_0817'
p47
sg12
g13
(g14
g15
NtRp48
(dp49
g18
I1
sg19
I0
sg20
I5
sg21
I0
sg22
I0
sg23
I0
sg24
I0
sbssg25
S'\t\xe0O \xc2\xa1\x1b\xe6\x16a\x86\xb1\x99\xb1\xb0k'
p50
ssS'project_go_urls'
p51
(dp52
g6
(dp53
g8
S'project_go_urls.html'
p54
sg10
S'project_go/urls'
p55
sg12
g13
(g14
g15
NtRp56
(dp57
g18
I1
sg19
I0
sg20
I7
sg21
I0
sg22
I0
sg23
I0
sg24
I0
sbssg25
S'X\xa8\xfd\xed.E#S\x8di\xa6\xad|\x1aP\xd1'
p58
ssS'projects_migrations_0004_auto_20150812_0810'
p59
(dp60
g6
(dp61
g8
S'projects_migrations_0004_auto_20150812_0810.html'
p62
sg10
S'projects/migrations/0004_auto_20150812_0810'
p63
sg12
g13
(g14
g15
NtRp64
(dp65
g18
I1
sg19
I0
sg20
I5
sg21
I0
sg22
I0
sg23
I0
sg24
I0
sbssg25
S'P\xf6\xd9a<s\xbdBWn,w\xc7\xe0\x18\xf6'
p66
ssS'manage'
p67
(dp68
g6
(dp69
g8
S'manage.html'
p70
sg10
g67
sg12
g13
(g14
g15
NtRp71
(dp72
g18
I1
sg19
I0
sg20
I6
sg21
I0
sg22
I0
sg23
I0
sg24
I0
sbssg25
S'_L\xaa\xb8\x9f\n\xc5\xfd\x8e\x8e\x12\xd1J\xb44 '
p73
ssS'users_urls'
p74
(dp75
g6
(dp76
g8
S'users_urls.html'
p77
sg10
S'users/urls'
p78
sg12
g13
(g14
g15
NtRp79
(dp80
g18
I1
sg19
I0
sg20
I3
sg21
I0
sg22
I0
sg23
I0
sg24
I0
sbssg25
S'\x05\xd5p\x95\x98\xcdMM\x86n\xf7\x03\xa9\xd3\x95q'
p81
ssS'users_models'
p82
(dp83
g6
(dp84
g8
S'users_models.html'
p85
sg10
S'users/models'
p86
sg12
g13
(g14
g15
NtRp87
(dp88
g18
I1
sg19
I0
sg20
I27
sg21
I0
sg22
I0
sg23
I2
sg24
I0
sbssg25
S'Ko\xcd;\xc9\x8e\xb6\xfa(U|\xfc\xff\xf9\xa9E'
p89
ssS'projects_urls'
p90
(dp91
g6
(dp92
g8
S'projects_urls.html'
p93
sg10
S'projects/urls'
p94
sg12
g13
(g14
g15
NtRp95
(dp96
g18
I1
sg19
I0
sg20
I4
sg21
I0
sg22
I0
sg23
I0
sg24
I0
sbssg25
S'Iuj\xc5\n\x06\xa2\xb2\x1fW/F\x80/\xf6\x16'
p97
ssS'projects_migrations_0002_pledge_reward_userpledge'
p98
(dp99
g6
(dp100
g8
S'projects_migrations_0002_pledge_reward_userpledge.html'
p101
sg10
S'projects/migrations/0002_pledge_reward_userpledge'
p102
sg12
g13
(g14
g15
NtRp103
(dp104
g18
I1
sg19
I0
sg20
I6
sg21
I0
sg22
I0
sg23
I0
sg24
I0
sbssg25
S'\x0b\x05(nl\xeej\x0c\x1f-\x81\xaa9\n\x9d\x86'
p105
ssS'users_views'
p106
(dp107
g6
(dp108
g8
S'users_views.html'
p109
sg10
S'users/views'
p110
sg12
g13
(g14
g15
NtRp111
(dp112
g18
I1
sg19
I0
sg20
I113
sg21
I0
sg22
I0
sg23
I39
sg24
I0
sbssg25
S'\xc3\xbc\xdc\x9c\x8c|\xef9\x00D\xa0\xcbWn\xc9\x85'
p113
ssS'projects_migrations_0001_initial'
p114
(dp115
g6
(dp116
g8
S'projects_migrations_0001_initial.html'
p117
sg10
S'projects/migrations/0001_initial'
p118
sg12
g13
(g14
g15
NtRp119
(dp120
g18
I1
sg19
I0
sg20
I6
sg21
I0
sg22
I0
sg23
I0
sg24
I0
sbssg25
S'\xe4R \xb0dx\x1e\xf3v\xee\x04mpKQ\x94'
p121
ssS'users___init__'
p122
(dp123
g6
(dp124
g8
S'users___init__.html'
p125
sg10
S'users/__init__'
p126
sg12
g13
(g14
g15
NtRp127
(dp128
g18
I1
sg19
I0
sg20
I0
sg21
I0
sg22
I0
sg23
I0
sg24
I0
sbssg25
S'\xca\xf5\x9f\x7f\x88\xdfa\x831|T\x1d\xbc}\xa5v'
p129
ssS'users_migrations_0007_address_active'
p130
(dp131
g6
(dp132
g8
S'users_migrations_0007_address_active.html'
p133
sg10
S'users/migrations/0007_address_active'
p134
sg12
g13
(g14
g15
NtRp135
(dp136
g18
I1
sg19
I0
sg20
I5
sg21
I0
sg22
I0
sg23
I0
sg24
I0
sbssg25
S'\x9c\xc6Z/P,\tU^\x82\x95&]XA\xd5'
p137
ssS'projects_migrations_0003_pledge_amount'
p138
(dp139
g6
(dp140
g8
S'projects_migrations_0003_pledge_amount.html'
p141
sg10
S'projects/migrations/0003_pledge_amount'
p142
sg12
g13
(g14
g15
NtRp143
(dp144
g18
I1
sg19
I0
sg20
I5
sg21
I0
sg22
I0
sg23
I0
sg24
I0
sbssg25
S'\x83\x89~\xc3C^\xc5K\xaf\xc0.y\xc0\xe3\xe2\x1c'
p145
ssS'users_migrations_0005_auto_20150812_1344'
p146
(dp147
g6
(dp148
g8
S'users_migrations_0005_auto_20150812_1344.html'
p149
sg10
S'users/migrations/0005_auto_20150812_1344'
p150
sg12
g13
(g14
g15
NtRp151
(dp152
g18
I1
sg19
I0
sg20
I5
sg21
I0
sg22
I0
sg23
I0
sg24
I0
sbssg25
S':@O\x8a\xd3\xbcr\xebu\xa7qM\x81\x9b%='
p153
ssS'projects_migrations_0015_auto_20150820_0915'
p154
(dp155
g6
(dp156
g8
S'projects_migrations_0015_auto_20150820_0915.html'
p157
sg10
S'projects/migrations/0015_auto_20150820_0915'
p158
sg12
g13
(g14
g15
NtRp159
(dp160
g18
I1
sg19
I0
sg20
I6
sg21
I0
sg22
I0
sg23
I0
sg24
I0
sbssg25
S'\x08]i\xa73\x8c\x1fBT\xfdJ\xed\xc1v{`'
p161
ssS'projects_migrations_0009_auto_20150812_1032'
p162
(dp163
g6
(dp164
g8
S'projects_migrations_0009_auto_20150812_1032.html'
p165
sg10
S'projects/migrations/0009_auto_20150812_1032'
p166
sg12
g13
(g14
g15
NtRp167
(dp168
g18
I1
sg19
I0
sg20
I5
sg21
I0
sg22
I0
sg23
I0
sg24
I0
sbssg25
S'\x03\x11<\xdc\\\xd6{S\x99\xcd\xd5\xa5r\xa4\x89\xa4'
p169
ssS'project_go_settings'
p170
(dp171
g6
(dp172
g8
S'project_go_settings.html'
p173
sg10
S'project_go/settings'
p174
sg12
g13
(g14
g15
NtRp175
(dp176
g18
I1
sg19
I0
sg20
I27
sg21
I0
sg22
I0
sg23
I0
sg24
I0
sbssg25
S'\x84\xa2:\x14&\x8eYHw\xdd\x0c=`O\xda\xdc'
p177
ssS'projects_migrations_0013_auto_20150818_0847'
p178
(dp179
g6
(dp180
g8
S'projects_migrations_0013_auto_20150818_0847.html'
p181
sg10
S'projects/migrations/0013_auto_20150818_0847'
p182
sg12
g13
(g14
g15
NtRp183
(dp184
g18
I1
sg19
I0
sg20
I5
sg21
I0
sg22
I0
sg23
I0
sg24
I0
sbssg25
S'\x86\x0c\xb3\xa7\x99\x81\x0bF\xfc\x1f(\x89\xbdXU\xbe'
p185
ssS'users_migrations_0008_auto_20150813_0952'
p186
(dp187
g6
(dp188
g8
S'users_migrations_0008_auto_20150813_0952.html'
p189
sg10
S'users/migrations/0008_auto_20150813_0952'
p190
sg12
g13
(g14
g15
NtRp191
(dp192
g18
I1
sg19
I0
sg20
I6
sg21
I0
sg22
I0
sg23
I0
sg24
I0
sbssg25
S"\xb4U\xd7\x91Z-]'\xbe\xb7\xba5s\x94\xc4\xbc"
p193
ssS'users_migrations___init__'
p194
(dp195
g6
(dp196
g8
S'users_migrations___init__.html'
p197
sg10
S'users/migrations/__init__'
p198
sg12
g13
(g14
g15
NtRp199
(dp200
g18
I1
sg19
I0
sg20
I0
sg21
I0
sg22
I0
sg23
I0
sg24
I0
sbssg25
S'\xca\xf5\x9f\x7f\x88\xdfa\x831|T\x1d\xbc}\xa5v'
p201
ssS'projects_migrations_0006_rewardpledge'
p202
(dp203
g6
(dp204
g8
S'projects_migrations_0006_rewardpledge.html'
p205
sg10
S'projects/migrations/0006_rewardpledge'
p206
sg12
g13
(g14
g15
NtRp207
(dp208
g18
I1
sg19
I0
sg20
I5
sg21
I0
sg22
I0
sg23
I0
sg24
I0
sbssg25
S'\xe5\x82\xee\xe3\xe2\x99\xb3\x17F\xa7|\t\xbfD\x860'
p209
ssS'projects_migrations_0012_auto_20150812_1058'
p210
(dp211
g6
(dp212
g8
S'projects_migrations_0012_auto_20150812_1058.html'
p213
sg10
S'projects/migrations/0012_auto_20150812_1058'
p214
sg12
g13
(g14
g15
NtRp215
(dp216
g18
I1
sg19
I0
sg20
I5
sg21
I0
sg22
I0
sg23
I0
sg24
I0
sbssg25
S'\xf9\xd4\xe0s#\x11k\xf2\x11\x8b)\xc2\xe5\xf6\xfd\x08'
p217
ssS'users_migrations_0006_auto_20150812_1348'
p218
(dp219
g6
(dp220
g8
S'users_migrations_0006_auto_20150812_1348.html'
p221
sg10
S'users/migrations/0006_auto_20150812_1348'
p222
sg12
g13
(g14
g15
NtRp223
(dp224
g18
I1
sg19
I0
sg20
I5
sg21
I0
sg22
I0
sg23
I0
sg24
I0
sbssg25
S'\xcd\xc8\xa2t\xb53\xe0F\x8b\xe6\xdeb\xeey\x89\xae'
p225
ssS'users_migrations_0004_auto_20150811_1139'
p226
(dp227
g6
(dp228
g8
S'users_migrations_0004_auto_20150811_1139.html'
p229
sg10
S'users/migrations/0004_auto_20150811_1139'
p230
sg12
g13
(g14
g15
NtRp231
(dp232
g18
I1
sg19
I0
sg20
I5
sg21
I0
sg22
I0
sg23
I0
sg24
I0
sbssg25
S'\xf28pYW\xb3\xf7\xa2\x93%E\xee\x08U\x04L'
p233
ssS'projects_migrations___init__'
p234
(dp235
g6
(dp236
g8
S'projects_migrations___init__.html'
p237
sg10
S'projects/migrations/__init__'
p238
sg12
g13
(g14
g15
NtRp239
(dp240
g18
I1
sg19
I0
sg20
I0
sg21
I0
sg22
I0
sg23
I0
sg24
I0
sbssg25
S'\xca\xf5\x9f\x7f\x88\xdfa\x831|T\x1d\xbc}\xa5v'
p241
ssS'users_migrations_0009_auto_20150813_0956'
p242
(dp243
g6
(dp244
g8
S'users_migrations_0009_auto_20150813_0956.html'
p245
sg10
S'users/migrations/0009_auto_20150813_0956'
p246
sg12
g13
(g14
g15
NtRp247
(dp248
g18
I1
sg19
I0
sg20
I5
sg21
I0
sg22
I0
sg23
I0
sg24
I0
sbssg25
S'\xd6\xb7x]a7M?O\x85\xe7Qi\x03\xd0/'
p249
ssS'users_forms'
p250
(dp251
g6
(dp252
g8
S'users_forms.html'
p253
sg10
S'users/forms'
p254
sg12
g13
(g14
g15
NtRp255
(dp256
g18
I1
sg19
I0
sg20
I38
sg21
I0
sg22
I0
sg23
I7
sg24
I0
sbssg25
S'\xe0\x87|\x0e\x8a\x03\x14m_\x81P=\xa6\xad\x16\x8b'
p257
ssS'users_migrations_0011_auto_20150813_1436'
p258
(dp259
g6
(dp260
g8
S'users_migrations_0011_auto_20150813_1436.html'
p261
sg10
S'users/migrations/0011_auto_20150813_1436'
p262
sg12
g13
(g14
g15
NtRp263
(dp264
g18
I1
sg19
I0
sg20
I5
sg21
I0
sg22
I0
sg23
I0
sg24
I0
sbssg25
S'\x9c%\xe3\x93\x11\x10\xb6\xe7,\xbd\x9d#G\xb7\xb7\xdf'
p265
ssS'projects_migrations_0011_auto_20150812_1049'
p266
(dp267
g6
(dp268
g8
S'projects_migrations_0011_auto_20150812_1049.html'
p269
sg10
S'projects/migrations/0011_auto_20150812_1049'
p270
sg12
g13
(g14
g15
NtRp271
(dp272
g18
I1
sg19
I0
sg20
I5
sg21
I0
sg22
I0
sg23
I0
sg24
I0
sbssg25
S'&\x10\x898lZ\x7f)\xbe\xc4\x0bq\x1c{E\xd1'
p273
ssS'project_go_wsgi'
p274
(dp275
g6
(dp276
g8
S'project_go_wsgi.html'
p277
sg10
S'project_go/wsgi'
p278
sg12
g13
(g14
g15
NtRp279
(dp280
g18
I1
sg19
I0
sg20
I4
sg21
I0
sg22
I0
sg23
I4
sg24
I0
sbssg25
S'\x15\x94\xfc\xf9\xd2`\x08\xaf\x04\xd63+\xd9\x93\\J'
p281
ssS'users_tests'
p282
(dp283
g6
(dp284
g8
S'users_tests.html'
p285
sg10
S'users/tests'
p286
sg12
g13
(g14
g15
NtRp287
(dp288
g18
I1
sg19
I0
sg20
I75
sg21
I0
sg22
I0
sg23
I0
sg24
I0
sbssg25
S'\x94\x9c\x8e\xe4O6{\xa9\xcda\xa0\xf0\x10\xdczd'
p289
ssS'users_migrations_0010_auto_20150813_1010'
p290
(dp291
g6
(dp292
g8
S'users_migrations_0010_auto_20150813_1010.html'
p293
sg10
S'users/migrations/0010_auto_20150813_1010'
p294
sg12
g13
(g14
g15
NtRp295
(dp296
g18
I1
sg19
I0
sg20
I6
sg21
I0
sg22
I0
sg23
I0
sg24
I0
sbssg25
S'\xc5N\x9f\x98e\xb0B\n\xbe\x0b\x11[#\x91\xa9\xe8'
p297
ssS'users_migrations_0003_auto_20150811_1108'
p298
(dp299
g6
(dp300
g8
S'users_migrations_0003_auto_20150811_1108.html'
p301
sg10
S'users/migrations/0003_auto_20150811_1108'
p302
sg12
g13
(g14
g15
NtRp303
(dp304
g18
I1
sg19
I0
sg20
I5
sg21
I0
sg22
I0
sg23
I0
sg24
I0
sbssg25
S'\xf8\xc4\xdc \xdd\xe6>\xb3\xbf\x80\xd1\xf1\x11rd\xf4'
p305
ssS'projects___init__'
p306
(dp307
g6
(dp308
g8
S'projects___init__.html'
p309
sg10
S'projects/__init__'
p310
sg12
g13
(g14
g15
NtRp311
(dp312
g18
I1
sg19
I0
sg20
I0
sg21
I0
sg22
I0
sg23
I0
sg24
I0
sbssg25
S'\xca\xf5\x9f\x7f\x88\xdfa\x831|T\x1d\xbc}\xa5v'
p313
ssS'projects_admin'
p314
(dp315
g6
(dp316
g8
S'projects_admin.html'
p317
sg10
S'projects/admin'
p318
sg12
g13
(g14
g15
NtRp319
(dp320
g18
I1
sg19
I0
sg20
I10
sg21
I0
sg22
I0
sg23
I0
sg24
I0
sbssg25
S'\xaa\xad\x9f^\xbf\xa3Z\x07\x03#8F\n@\xb2\xdc'
p321
ssS'users_admin'
p322
(dp323
g6
(dp324
g8
S'users_admin.html'
p325
sg10
S'users/admin'
p326
sg12
g13
(g14
g15
NtRp327
(dp328
g18
I1
sg19
I0
sg20
I6
sg21
I0
sg22
I0
sg23
I0
sg24
I0
sbssg25
S'\xa0\xa1l\xb6W}\xf7\x88z\x93\xc9E\xfb\x0e\x98\xfc'
p329
ssS'projects_migrations_0007_auto_20150812_0914'
p330
(dp331
g6
(dp332
g8
S'projects_migrations_0007_auto_20150812_0914.html'
p333
sg10
S'projects/migrations/0007_auto_20150812_0914'
p334
sg12
g13
(g14
g15
NtRp335
(dp336
g18
I1
sg19
I0
sg20
I5
sg21
I0
sg22
I0
sg23
I0
sg24
I0
sbssg25
S'\xbe\xd0\xa7o\xab\x0b\xd4E\xcd\xf8\x06\x16\x8dd\x95A'
p337
ssS'projects_models'
p338
(dp339
g6
(dp340
g8
S'projects_models.html'
p341
sg10
S'projects/models'
p342
sg12
g13
(g14
g15
NtRp343
(dp344
g18
I1
sg19
I0
sg20
I62
sg21
I0
sg22
I0
sg23
I3
sg24
I0
sbssg25
S'\x8f\xe5\x04~\xc3\xd8\x7f\x95T\xe9\xd8|\xdb\x92\x8f\x06'
p345
ssS'users_migrations_0002_auto_20150810_1437'
p346
(dp347
g6
(dp348
g8
S'users_migrations_0002_auto_20150810_1437.html'
p349
sg10
S'users/migrations/0002_auto_20150810_1437'
p350
sg12
g13
(g14
g15
NtRp351
(dp352
g18
I1
sg19
I0
sg20
I6
sg21
I0
sg22
I0
sg23
I0
sg24
I0
sbssg25
S'L\xe0-\xe4\x95N\xca\xb6\xe8Z\xc0\x0c2t\x9d\xe6'
p353
ssS'projects_tests'
p354
(dp355
g6
(dp356
g8
S'projects_tests.html'
p357
sg10
S'projects/tests'
p358
sg12
g13
(g14
g15
NtRp359
(dp360
g18
I1
sg19
I0
sg20
I174
sg21
I0
sg22
I0
sg23
I0
sg24
I0
sbssg25
S'S\x18\xb8\x84\xfa\xf2\xa0\xd6\xeeb\x88\xcf\xfd\x93%\xf7'
p361
ssS'projects_views'
p362
(dp363
g6
(dp364
g8
S'projects_views.html'
p365
sg10
S'projects/views'
p366
sg12
g13
(g14
g15
NtRp367
(dp368
g18
I1
sg19
I0
sg20
I229
sg21
I0
sg22
I0
sg23
I81
sg24
I0
sbssg25
S'\xf6\xafD\x0e\x9e\xb8\xeba \xc8\xcf\x99\x99\xd4\xe6\x18'
p369
ssS'projects_migrations_0010_auto_20150812_1048'
p370
(dp371
g6
(dp372
g8
S'projects_migrations_0010_auto_20150812_1048.html'
p373
sg10
S'projects/migrations/0010_auto_20150812_1048'
p374
sg12
g13
(g14
g15
NtRp375
(dp376
g18
I1
sg19
I0
sg20
I5
sg21
I0
sg22
I0
sg23
I0
sg24
I0
sbssg25
S'o!4\xf7\xb1\xeeC\xdf]O\xeb\xcf9\xba=\x88'
p377
ssS'users_migrations_0012_auto_20150818_0847'
p378
(dp379
g6
(dp380
g8
S'users_migrations_0012_auto_20150818_0847.html'
p381
sg10
S'users/migrations/0012_auto_20150818_0847'
p382
sg12
g13
(g14
g15
NtRp383
(dp384
g18
I1
sg19
I0
sg20
I5
sg21
I0
sg22
I0
sg23
I0
sg24
I0
sbssg25
S'3P\x10_<\xeb\xf7\xadv\xeb\xc7\x100^\x9bc'
p385
ssS'project_go___init__'
p386
(dp387
g6
(dp388
g8
S'project_go___init__.html'
p389
sg10
S'project_go/__init__'
p390
sg12
g13
(g14
g15
NtRp391
(dp392
g18
I1
sg19
I0
sg20
I0
sg21
I0
sg22
I0
sg23
I0
sg24
I0
sbssg25
S'\xca\xf5\x9f\x7f\x88\xdfa\x831|T\x1d\xbc}\xa5v'
p393
ssS'projects_migrations_0014_project_created_date'
p394
(dp395
g6
(dp396
g8
S'projects_migrations_0014_project_created_date.html'
p397
sg10
S'projects/migrations/0014_project_created_date'
p398
sg12
g13
(g14
g15
NtRp399
(dp400
g18
I1
sg19
I0
sg20
I7
sg21
I0
sg22
I0
sg23
I0
sg24
I0
sbssg25
S'p\xfc\xcd\xee1\x19f\xcdo\x11(+\xfb\x15]o'
p401
sssS'version'
p402
S'3.7.1'
p403
sS'settings'
p404
S'\x98\xa8x\xfe"r\xb5K\x98\xb1N\\\x99\x9e\xf3\xe5'
p405
sS'format'
p406
I1
s.